Process: GoogleUpdate.e Pid: 2536 Address: 0x1d0000
Vad Tag: VadS Protection: PAGE_EXECUTE_READWRITE
Flags: CommitCharge: 1, MemCommit: 1, PrivateMemory: 1, Protection: 6

0x001d0000  00 00 00 00 00 00 00 00 00 00 00 00 00 00 00 00   ................
0x001d0010  00 00 1d 00 00 00 00 00 00 00 00 00 00 00 00 00   ................
0x001d0020  10 00 1d 00 00 00 00 00 00 00 00 00 00 00 00 00   ................
0x001d0030  20 00 1d 00 00 00 00 00 00 00 00 00 00 00 00 00   ................

0x001d0000 0000             ADD [EAX], AL
0x001d0002 0000             ADD [EAX], AL
0x001d0004 0000             ADD [EAX], AL
0x001d0006 0000             ADD [EAX], AL
0x001d0008 0000             ADD [EAX], AL
0x001d000a 0000             ADD [EAX], AL
0x001d000c 0000             ADD [EAX], AL
0x001d000e 0000             ADD [EAX], AL
0x001d0010 0000             ADD [EAX], AL
0x001d0012 1d00000000       SBB EAX, 0x0
0x001d0017 0000             ADD [EAX], AL
0x001d0019 0000             ADD [EAX], AL
0x001d001b 0000             ADD [EAX], AL
0x001d001d 0000             ADD [EAX], AL
0x001d001f 0010             ADD [EAX], DL
0x001d0021 001d00000000     ADD [0x0], BL
0x001d0027 0000             ADD [EAX], AL
0x001d0029 0000             ADD [EAX], AL
0x001d002b 0000             ADD [EAX], AL
0x001d002d 0000             ADD [EAX], AL
0x001d002f 0020             ADD [EAX], AH
0x001d0031 001d00000000     ADD [0x0], BL
0x001d0037 0000             ADD [EAX], AL
0x001d0039 0000             ADD [EAX], AL
0x001d003b 0000             ADD [EAX], AL
0x001d003d 0000             ADD [EAX], AL
0x001d003f 00               DB 0x0

Process: svchost.exe Pid: 1600 Address: 0x3030000
Vad Tag: VadS Protection: PAGE_EXECUTE_READWRITE
Flags: CommitCharge: 269, MemCommit: 1, PrivateMemory: 1, Protection: 6

0x03030000  00 00 00 00 00 00 00 00 00 00 00 00 00 00 00 00   ................
0x03030010  00 00 00 00 00 00 00 00 00 00 00 00 00 00 00 00   ................
0x03030020  00 00 00 00 00 00 00 00 00 00 00 00 00 00 00 00   ................
0x03030030  00 00 00 00 00 00 00 00 00 00 00 00 00 00 00 00   ................

0x03030000 0000             ADD [EAX], AL
0x03030002 0000             ADD [EAX], AL
0x03030004 0000             ADD [EAX], AL
0x03030006 0000             ADD [EAX], AL
0x03030008 0000             ADD [EAX], AL
0x0303000a 0000             ADD [EAX], AL
0x0303000c 0000             ADD [EAX], AL
0x0303000e 0000             ADD [EAX], AL
0x03030010 0000             ADD [EAX], AL
0x03030012 0000             ADD [EAX], AL
0x03030014 0000             ADD [EAX], AL
0x03030016 0000             ADD [EAX], AL
0x03030018 0000             ADD [EAX], AL
0x0303001a 0000             ADD [EAX], AL
0x0303001c 0000             ADD [EAX], AL
0x0303001e 0000             ADD [EAX], AL
0x03030020 0000             ADD [EAX], AL
0x03030022 0000             ADD [EAX], AL
0x03030024 0000             ADD [EAX], AL
0x03030026 0000             ADD [EAX], AL
0x03030028 0000             ADD [EAX], AL
0x0303002a 0000             ADD [EAX], AL
0x0303002c 0000             ADD [EAX], AL
0x0303002e 0000             ADD [EAX], AL
0x03030030 0000             ADD [EAX], AL
0x03030032 0000             ADD [EAX], AL
0x03030034 0000             ADD [EAX], AL
0x03030036 0000             ADD [EAX], AL
0x03030038 0000             ADD [EAX], AL
0x0303003a 0000             ADD [EAX], AL
0x0303003c 0000             ADD [EAX], AL
0x0303003e 0000             ADD [EAX], AL

Process: svchost.exe Pid: 1600 Address: 0x6750000
Vad Tag: VadS Protection: PAGE_EXECUTE_READWRITE
Flags: CommitCharge: 128, MemCommit: 1, PrivateMemory: 1, Protection: 6

0x06750000  20 00 00 00 e0 ff 07 00 0c 00 00 00 01 00 07 00   ................
0x06750010  00 42 00 30 00 70 00 60 00 50 00 c0 00 d0 00 00   .B.0.p.`.P......
0x06750020  08 00 42 00 00 00 00 05 48 8b 45 20 48 89 c2 48   ..B.....H.E.H..H
0x06750030  8b 45 18 48 8b 00 48 89 02 48 8b 45 20 81 00 a0   .E.H..H..H.E....

0x06750000 2000             AND [EAX], AL
0x06750002 0000             ADD [EAX], AL
0x06750004 e0ff             LOOPNZ 0x6750005
0x06750006 07               POP ES
0x06750007 000c00           ADD [EAX+EAX], CL
0x0675000a 0000             ADD [EAX], AL
0x0675000c 0100             ADD [EAX], EAX
0x0675000e 07               POP ES
0x0675000f 0000             ADD [EAX], AL
0x06750011 42               INC EDX
0x06750012 0030             ADD [EAX], DH
0x06750014 007000           ADD [EAX+0x0], DH
0x06750017 60               PUSHA
0x06750018 005000           ADD [EAX+0x0], DL
0x0675001b c000d0           ROL BYTE [EAX], 0xd0
0x0675001e 0000             ADD [EAX], AL
0x06750020 0800             OR [EAX], AL
0x06750022 42               INC EDX
0x06750023 0000             ADD [EAX], AL
0x06750025 0000             ADD [EAX], AL
0x06750027 05488b4520       ADD EAX, 0x20458b48
0x0675002c 48               DEC EAX
0x0675002d 89c2             MOV EDX, EAX
0x0675002f 48               DEC EAX
0x06750030 8b4518           MOV EAX, [EBP+0x18]
0x06750033 48               DEC EAX
0x06750034 8b00             MOV EAX, [EAX]
0x06750036 48               DEC EAX
0x06750037 8902             MOV [EDX], EAX
0x06750039 48               DEC EAX
0x0675003a 8b4520           MOV EAX, [EBP+0x20]
0x0675003d 81               DB 0x81
0x0675003e 00               DB 0x0
0x0675003f a0               DB 0xa0

Process: svchost.exe Pid: 1600 Address: 0xd3a0000
Vad Tag: VadS Protection: PAGE_EXECUTE_READWRITE
Flags: CommitCharge: 256, MemCommit: 1, PrivateMemory: 1, Protection: 6

0x0d3a0000  20 00 00 00 e0 ff 0f 00 0c 00 00 00 01 00 07 00   ................
0x0d3a0010  00 42 00 30 00 70 00 60 00 50 00 c0 00 d0 00 00   .B.0.p.`.P......
0x0d3a0020  09 00 38 00 09 00 01 05 8b 55 18 8b 4d 54 8d 54   ..8......U..MT.T
0x0d3a0030  0a fc 89 d7 b9 04 00 1a 00 ff 56 28 8b 4d 1c 89   ..........V(.M..

0x0d3a0000 2000             AND [EAX], AL
0x0d3a0002 0000             ADD [EAX], AL
0x0d3a0004 e0ff             LOOPNZ 0xd3a0005
0x0d3a0006 0f000c00         STR WORD [EAX+EAX]
0x0d3a000a 0000             ADD [EAX], AL
0x0d3a000c 0100             ADD [EAX], EAX
0x0d3a000e 07               POP ES
0x0d3a000f 0000             ADD [EAX], AL
0x0d3a0011 42               INC EDX
0x0d3a0012 0030             ADD [EAX], DH
0x0d3a0014 007000           ADD [EAX+0x0], DH
0x0d3a0017 60               PUSHA
0x0d3a0018 005000           ADD [EAX+0x0], DL
0x0d3a001b c000d0           ROL BYTE [EAX], 0xd0
0x0d3a001e 0000             ADD [EAX], AL
0x0d3a0020 0900             OR [EAX], EAX
0x0d3a0022 3800             CMP [EAX], AL
0x0d3a0024 0900             OR [EAX], EAX
0x0d3a0026 01058b55188b     ADD [0x8b18558b], EAX
0x0d3a002c 4d               DEC EBP
0x0d3a002d 54               PUSH ESP
0x0d3a002e 8d540afc         LEA EDX, [EDX+ECX-0x4]
0x0d3a0032 89d7             MOV EDI, EDX
0x0d3a0034 b904001a00       MOV ECX, 0x1a0004
0x0d3a0039 ff5628           CALL DWORD [ESI+0x28]
0x0d3a003c 8b4d1c           MOV ECX, [EBP+0x1c]
0x0d3a003f 89               DB 0x89

Process: explorer.exe Pid: 7592 Address: 0x29a0000
Vad Tag: VadS Protection: PAGE_EXECUTE_READWRITE
Flags: CommitCharge: 16, MemCommit: 1, PrivateMemory: 1, Protection: 6

0x029a0000  41 ba 80 00 00 00 48 b8 38 a1 00 fe fe 07 00 00   A.....H.8.......
0x029a0010  48 ff 20 90 41 ba 81 00 00 00 48 b8 38 a1 00 fe   H...A.....H.8...
0x029a0020  fe 07 00 00 48 ff 20 90 41 ba 82 00 00 00 48 b8   ....H...A.....H.
0x029a0030  38 a1 00 fe fe 07 00 00 48 ff 20 90 41 ba 83 00   8.......H...A...

0x029a0000 41               INC ECX
0x029a0001 ba80000000       MOV EDX, 0x80
0x029a0006 48               DEC EAX
0x029a0007 b838a100fe       MOV EAX, 0xfe00a138
0x029a000c fe07             INC BYTE [EDI]
0x029a000e 0000             ADD [EAX], AL
0x029a0010 48               DEC EAX
0x029a0011 ff20             JMP DWORD [EAX]
0x029a0013 90               NOP
0x029a0014 41               INC ECX
0x029a0015 ba81000000       MOV EDX, 0x81
0x029a001a 48               DEC EAX
0x029a001b b838a100fe       MOV EAX, 0xfe00a138
0x029a0020 fe07             INC BYTE [EDI]
0x029a0022 0000             ADD [EAX], AL
0x029a0024 48               DEC EAX
0x029a0025 ff20             JMP DWORD [EAX]
0x029a0027 90               NOP
0x029a0028 41               INC ECX
0x029a0029 ba82000000       MOV EDX, 0x82
0x029a002e 48               DEC EAX
0x029a002f b838a100fe       MOV EAX, 0xfe00a138
0x029a0034 fe07             INC BYTE [EDI]
0x029a0036 0000             ADD [EAX], AL
0x029a0038 48               DEC EAX
0x029a0039 ff20             JMP DWORD [EAX]
0x029a003b 90               NOP
0x029a003c 41               INC ECX
0x029a003d ba               DB 0xba
0x029a003e 83               DB 0x83
0x029a003f 00               DB 0x0

Process: explorer.exe Pid: 7592 Address: 0x2df0000
Vad Tag: VadS Protection: PAGE_EXECUTE_READWRITE
Flags: CommitCharge: 1, MemCommit: 1, PrivateMemory: 1, Protection: 6

0x02df0000  00 00 00 00 00 00 00 00 00 00 00 00 00 00 00 00   ................
0x02df0010  00 00 00 00 00 00 00 00 00 00 00 00 00 00 00 00   ................
0x02df0020  00 00 df 02 00 00 00 00 00 00 00 00 00 00 00 00   ................
0x02df0030  00 00 00 00 00 00 00 00 00 00 00 00 00 00 00 00   ................

0x02df0000 0000             ADD [EAX], AL
0x02df0002 0000             ADD [EAX], AL
0x02df0004 0000             ADD [EAX], AL
0x02df0006 0000             ADD [EAX], AL
0x02df0008 0000             ADD [EAX], AL
0x02df000a 0000             ADD [EAX], AL
0x02df000c 0000             ADD [EAX], AL
0x02df000e 0000             ADD [EAX], AL
0x02df0010 0000             ADD [EAX], AL
0x02df0012 0000             ADD [EAX], AL
0x02df0014 0000             ADD [EAX], AL
0x02df0016 0000             ADD [EAX], AL
0x02df0018 0000             ADD [EAX], AL
0x02df001a 0000             ADD [EAX], AL
0x02df001c 0000             ADD [EAX], AL
0x02df001e 0000             ADD [EAX], AL
0x02df0020 0000             ADD [EAX], AL
0x02df0022 df02             FILD WORD [EDX]
0x02df0024 0000             ADD [EAX], AL
0x02df0026 0000             ADD [EAX], AL
0x02df0028 0000             ADD [EAX], AL
0x02df002a 0000             ADD [EAX], AL
0x02df002c 0000             ADD [EAX], AL
0x02df002e 0000             ADD [EAX], AL
0x02df0030 0000             ADD [EAX], AL
0x02df0032 0000             ADD [EAX], AL
0x02df0034 0000             ADD [EAX], AL
0x02df0036 0000             ADD [EAX], AL
0x02df0038 0000             ADD [EAX], AL
0x02df003a 0000             ADD [EAX], AL
0x02df003c 0000             ADD [EAX], AL
0x02df003e 0000             ADD [EAX], AL

Process: explorer.exe Pid: 7592 Address: 0x4bd0000
Vad Tag: VadS Protection: PAGE_EXECUTE_READWRITE
Flags: CommitCharge: 2, PrivateMemory: 1, Protection: 6

0x04bd0000  00 00 00 00 00 00 00 00 ed fc b6 fc be eb 00 01   ................
0x04bd0010  ee ff ee ff 00 00 00 00 28 01 bd 04 00 00 00 00   ........(.......
0x04bd0020  28 01 bd 04 00 00 00 00 00 00 bd 04 00 00 00 00   (...............
0x04bd0030  00 00 bd 04 00 00 00 00 80 00 00 00 00 00 00 00   ................

0x04bd0000 0000             ADD [EAX], AL
0x04bd0002 0000             ADD [EAX], AL
0x04bd0004 0000             ADD [EAX], AL
0x04bd0006 0000             ADD [EAX], AL
0x04bd0008 ed               IN EAX, DX
0x04bd0009 fc               CLD
0x04bd000a b6fc             MOV DH, 0xfc
0x04bd000c beeb0001ee       MOV ESI, 0xee0100eb
0x04bd0011 ff               DB 0xff
0x04bd0012 ee               OUT DX, AL
0x04bd0013 ff00             INC DWORD [EAX]
0x04bd0015 0000             ADD [EAX], AL
0x04bd0017 0028             ADD [EAX], CH
0x04bd0019 01bd04000000     ADD [EBP+0x4], EDI
0x04bd001f 0028             ADD [EAX], CH
0x04bd0021 01bd04000000     ADD [EBP+0x4], EDI
0x04bd0027 0000             ADD [EAX], AL
0x04bd0029 00bd04000000     ADD [EBP+0x4], BH
0x04bd002f 0000             ADD [EAX], AL
0x04bd0031 00bd04000000     ADD [EBP+0x4], BH
0x04bd0037 008000000000     ADD [EAX+0x0], AL
0x04bd003d 0000             ADD [EAX], AL
0x04bd003f 00               DB 0x0

Process: wsmprovhost.ex Pid: 5936 Address: 0x1670000
Vad Tag: VadS Protection: PAGE_EXECUTE_READWRITE
Flags: CommitCharge: 2, PrivateMemory: 1, Protection: 6

0x01670000  00 00 00 00 00 00 00 00 40 ee 5d df 3e a8 00 01   ........@.].>...
0x01670010  ee ff ee ff 00 00 00 00 28 01 67 01 00 00 00 00   ........(.g.....
0x01670020  28 01 67 01 00 00 00 00 00 00 67 01 00 00 00 00   (.g.......g.....
0x01670030  00 00 67 01 00 00 00 00 80 00 00 00 00 00 00 00   ..g.............

0x01670000 0000             ADD [EAX], AL
0x01670002 0000             ADD [EAX], AL
0x01670004 0000             ADD [EAX], AL
0x01670006 0000             ADD [EAX], AL
0x01670008 40               INC EAX
0x01670009 ee               OUT DX, AL
0x0167000a 5d               POP EBP
0x0167000b df3e             FISTP QWORD [ESI]
0x0167000d a800             TEST AL, 0x0
0x0167000f 01ee             ADD ESI, EBP
0x01670011 ff               DB 0xff
0x01670012 ee               OUT DX, AL
0x01670013 ff00             INC DWORD [EAX]
0x01670015 0000             ADD [EAX], AL
0x01670017 0028             ADD [EAX], CH
0x01670019 016701           ADD [EDI+0x1], ESP
0x0167001c 0000             ADD [EAX], AL
0x0167001e 0000             ADD [EAX], AL
0x01670020 2801             SUB [ECX], AL
0x01670022 670100           ADD [BX+SI], EAX
0x01670025 0000             ADD [EAX], AL
0x01670027 0000             ADD [EAX], AL
0x01670029 006701           ADD [EDI+0x1], AH
0x0167002c 0000             ADD [EAX], AL
0x0167002e 0000             ADD [EAX], AL
0x01670030 0000             ADD [EAX], AL
0x01670032 670100           ADD [BX+SI], EAX
0x01670035 0000             ADD [EAX], AL
0x01670037 008000000000     ADD [EAX+0x0], AL
0x0167003d 0000             ADD [EAX], AL
0x0167003f 00               DB 0x0

Process: wsmprovhost.ex Pid: 5936 Address: 0x14c0000
Vad Tag: VadS Protection: PAGE_EXECUTE_READWRITE
Flags: CommitCharge: 2, PrivateMemory: 1, Protection: 6

0x014c0000  00 00 00 00 00 00 00 00 a1 b8 91 8d 51 d9 00 01   ............Q...
0x014c0010  ee ff ee ff 00 00 00 00 28 01 4c 01 00 00 00 00   ........(.L.....
0x014c0020  28 01 4c 01 00 00 00 00 00 00 4c 01 00 00 00 00   (.L.......L.....
0x014c0030  00 00 4c 01 00 00 00 00 80 00 00 00 00 00 00 00   ..L.............

0x014c0000 0000             ADD [EAX], AL
0x014c0002 0000             ADD [EAX], AL
0x014c0004 0000             ADD [EAX], AL
0x014c0006 0000             ADD [EAX], AL
0x014c0008 a1b8918d51       MOV EAX, [0x518d91b8]
0x014c000d d900             FLD DWORD [EAX]
0x014c000f 01ee             ADD ESI, EBP
0x014c0011 ff               DB 0xff
0x014c0012 ee               OUT DX, AL
0x014c0013 ff00             INC DWORD [EAX]
0x014c0015 0000             ADD [EAX], AL
0x014c0017 0028             ADD [EAX], CH
0x014c0019 014c0100         ADD [ECX+EAX+0x0], ECX
0x014c001d 0000             ADD [EAX], AL
0x014c001f 0028             ADD [EAX], CH
0x014c0021 014c0100         ADD [ECX+EAX+0x0], ECX
0x014c0025 0000             ADD [EAX], AL
0x014c0027 0000             ADD [EAX], AL
0x014c0029 004c0100         ADD [ECX+EAX+0x0], CL
0x014c002d 0000             ADD [EAX], AL
0x014c002f 0000             ADD [EAX], AL
0x014c0031 004c0100         ADD [ECX+EAX+0x0], CL
0x014c0035 0000             ADD [EAX], AL
0x014c0037 008000000000     ADD [EAX+0x0], AL
0x014c003d 0000             ADD [EAX], AL
0x014c003f 00               DB 0x0

Process: wsmprovhost.ex Pid: 5936 Address: 0x19860000
Vad Tag: VadS Protection: PAGE_EXECUTE_READWRITE
Flags: CommitCharge: 41, PrivateMemory: 1, Protection: 6

0x19860000  00 00 00 00 00 00 00 00 b4 0f f2 c7 75 81 00 01   ............u...
0x19860010  ee ff ee ff 00 00 00 00 28 01 86 19 00 00 00 00   ........(.......
0x19860020  28 01 86 19 00 00 00 00 00 00 86 19 00 00 00 00   (...............
0x19860030  00 00 86 19 00 00 00 00 80 00 00 00 00 00 00 00   ................

0x19860000 0000             ADD [EAX], AL
0x19860002 0000             ADD [EAX], AL
0x19860004 0000             ADD [EAX], AL
0x19860006 0000             ADD [EAX], AL
0x19860008 b40f             MOV AH, 0xf
0x1986000a f2               DB 0xf2
0x1986000b c7               DB 0xc7
0x1986000c 7581             JNZ 0x1985ff8f
0x1986000e 0001             ADD [ECX], AL
0x19860010 ee               OUT DX, AL
0x19860011 ff               DB 0xff
0x19860012 ee               OUT DX, AL
0x19860013 ff00             INC DWORD [EAX]
0x19860015 0000             ADD [EAX], AL
0x19860017 0028             ADD [EAX], CH
0x19860019 018619000000     ADD [ESI+0x19], EAX
0x1986001f 0028             ADD [EAX], CH
0x19860021 018619000000     ADD [ESI+0x19], EAX
0x19860027 0000             ADD [EAX], AL
0x19860029 008619000000     ADD [ESI+0x19], AL
0x1986002f 0000             ADD [EAX], AL
0x19860031 008619000000     ADD [ESI+0x19], AL
0x19860037 008000000000     ADD [EAX+0x0], AL
0x1986003d 0000             ADD [EAX], AL
0x1986003f 00               DB 0x0

Process: wsmprovhost.ex Pid: 5936 Address: 0x7fffff00000
Vad Tag: VadS Protection: PAGE_EXECUTE_READWRITE
Flags: CommitCharge: 2, PrivateMemory: 1, Protection: 6

0x7fffff00000  d8 ff ff ff ff ff ff ff 08 00 00 00 00 00 00 00   ................
0x7fffff00010  01 00 00 00 00 00 00 00 00 02 0e 03 38 00 00 00   ............8...
0x7fffff00020  68 41 b8 07 0c 00 00 00 28 8b 6d ed fe 07 00 00   hA......(.m.....
0x7fffff00030  00 10 02 ed fe 07 00 00 c8 41 0e ed fe 07 00 00   .........A......

0xfff00000 d8ff             FDIVR ST0, ST7
0xfff00002 ff               DB 0xff
0xfff00003 ff               DB 0xff
0xfff00004 ff               DB 0xff
0xfff00005 ff               DB 0xff
0xfff00006 ff               DB 0xff
0xfff00007 ff08             DEC DWORD [EAX]
0xfff00009 0000             ADD [EAX], AL
0xfff0000b 0000             ADD [EAX], AL
0xfff0000d 0000             ADD [EAX], AL
0xfff0000f 0001             ADD [ECX], AL
0xfff00011 0000             ADD [EAX], AL
0xfff00013 0000             ADD [EAX], AL
0xfff00015 0000             ADD [EAX], AL
0xfff00017 0000             ADD [EAX], AL
0xfff00019 020e             ADD CL, [ESI]
0xfff0001b 0338             ADD EDI, [EAX]
0xfff0001d 0000             ADD [EAX], AL
0xfff0001f 006841           ADD [EAX+0x41], CH
0xfff00022 b8070c0000       MOV EAX, 0xc07
0xfff00027 0028             ADD [EAX], CH
0xfff00029 8b6ded           MOV EBP, [EBP-0x13]
0xfff0002c fe07             INC BYTE [EDI]
0xfff0002e 0000             ADD [EAX], AL
0xfff00030 0010             ADD [EAX], DL
0xfff00032 02ed             ADD CH, CH
0xfff00034 fe07             INC BYTE [EDI]
0xfff00036 0000             ADD [EAX], AL
0xfff00038 c8410eed         ENTER 0xe41, 0xed
0xfff0003c fe07             INC BYTE [EDI]
0xfff0003e 0000             ADD [EAX], AL

Process: wsmprovhost.ex Pid: 5936 Address: 0x7ffffef0000
Vad Tag: VadS Protection: PAGE_EXECUTE_READWRITE
Flags: CommitCharge: 1, PrivateMemory: 1, Protection: 6

0x7ffffef0000  00 00 00 00 00 00 00 00 78 0d 00 00 00 00 00 00   ........x.......
0x7ffffef0010  0c 00 00 00 49 c7 c2 00 00 00 00 48 b8 80 1a 55   ....I......H...U
0x7ffffef0020  ee fe 07 00 00 ff e0 49 c7 c2 01 00 00 00 48 b8   .......I......H.
0x7ffffef0030  80 1a 55 ee fe 07 00 00 ff e0 49 c7 c2 02 00 00   ..U.......I.....

0xffef0000 0000             ADD [EAX], AL
0xffef0002 0000             ADD [EAX], AL
0xffef0004 0000             ADD [EAX], AL
0xffef0006 0000             ADD [EAX], AL
0xffef0008 780d             JS 0xffef0017
0xffef000a 0000             ADD [EAX], AL
0xffef000c 0000             ADD [EAX], AL
0xffef000e 0000             ADD [EAX], AL
0xffef0010 0c00             OR AL, 0x0
0xffef0012 0000             ADD [EAX], AL
0xffef0014 49               DEC ECX
0xffef0015 c7c200000000     MOV EDX, 0x0
0xffef001b 48               DEC EAX
0xffef001c b8801a55ee       MOV EAX, 0xee551a80
0xffef0021 fe07             INC BYTE [EDI]
0xffef0023 0000             ADD [EAX], AL
0xffef0025 ffe0             JMP EAX
0xffef0027 49               DEC ECX
0xffef0028 c7c201000000     MOV EDX, 0x1
0xffef002e 48               DEC EAX
0xffef002f b8801a55ee       MOV EAX, 0xee551a80
0xffef0034 fe07             INC BYTE [EDI]
0xffef0036 0000             ADD [EAX], AL
0xffef0038 ffe0             JMP EAX
0xffef003a 49               DEC ECX
0xffef003b c7               DB 0xc7
0xffef003c c20200           RET 0x2
0xffef003f 00               DB 0x0

Process: wsmprovhost.ex Pid: 6344 Address: 0x15d0000
Vad Tag: VadS Protection: PAGE_EXECUTE_READWRITE
Flags: CommitCharge: 2, PrivateMemory: 1, Protection: 6

0x015d0000  00 00 00 00 00 00 00 00 86 8b 33 b8 e4 a4 00 01   ..........3.....
0x015d0010  ee ff ee ff 00 00 00 00 28 01 5d 01 00 00 00 00   ........(.].....
0x015d0020  28 01 5d 01 00 00 00 00 00 00 5d 01 00 00 00 00   (.].......].....
0x015d0030  00 00 5d 01 00 00 00 00 80 00 00 00 00 00 00 00   ..].............

0x015d0000 0000             ADD [EAX], AL
0x015d0002 0000             ADD [EAX], AL
0x015d0004 0000             ADD [EAX], AL
0x015d0006 0000             ADD [EAX], AL
0x015d0008 868b33b8e4a4     XCHG [EBX-0x5b1b47cd], CL
0x015d000e 0001             ADD [ECX], AL
0x015d0010 ee               OUT DX, AL
0x015d0011 ff               DB 0xff
0x015d0012 ee               OUT DX, AL
0x015d0013 ff00             INC DWORD [EAX]
0x015d0015 0000             ADD [EAX], AL
0x015d0017 0028             ADD [EAX], CH
0x015d0019 015d01           ADD [EBP+0x1], EBX
0x015d001c 0000             ADD [EAX], AL
0x015d001e 0000             ADD [EAX], AL
0x015d0020 2801             SUB [ECX], AL
0x015d0022 5d               POP EBP
0x015d0023 0100             ADD [EAX], EAX
0x015d0025 0000             ADD [EAX], AL
0x015d0027 0000             ADD [EAX], AL
0x015d0029 005d01           ADD [EBP+0x1], BL
0x015d002c 0000             ADD [EAX], AL
0x015d002e 0000             ADD [EAX], AL
0x015d0030 0000             ADD [EAX], AL
0x015d0032 5d               POP EBP
0x015d0033 0100             ADD [EAX], EAX
0x015d0035 0000             ADD [EAX], AL
0x015d0037 008000000000     ADD [EAX+0x0], AL
0x015d003d 0000             ADD [EAX], AL
0x015d003f 00               DB 0x0

Process: wsmprovhost.ex Pid: 6344 Address: 0x1400000
Vad Tag: VadS Protection: PAGE_EXECUTE_READWRITE
Flags: CommitCharge: 2, PrivateMemory: 1, Protection: 6

0x01400000  00 00 00 00 00 00 00 00 b7 2e 3d 86 6d 9f 00 01   ..........=.m...
0x01400010  ee ff ee ff 00 00 00 00 28 01 40 01 00 00 00 00   ........(.@.....
0x01400020  28 01 40 01 00 00 00 00 00 00 40 01 00 00 00 00   (.@.......@.....
0x01400030  00 00 40 01 00 00 00 00 80 00 00 00 00 00 00 00   ..@.............

0x01400000 0000             ADD [EAX], AL
0x01400002 0000             ADD [EAX], AL
0x01400004 0000             ADD [EAX], AL
0x01400006 0000             ADD [EAX], AL
0x01400008 b72e             MOV BH, 0x2e
0x0140000a 3d866d9f00       CMP EAX, 0x9f6d86
0x0140000f 01ee             ADD ESI, EBP
0x01400011 ff               DB 0xff
0x01400012 ee               OUT DX, AL
0x01400013 ff00             INC DWORD [EAX]
0x01400015 0000             ADD [EAX], AL
0x01400017 0028             ADD [EAX], CH
0x01400019 014001           ADD [EAX+0x1], EAX
0x0140001c 0000             ADD [EAX], AL
0x0140001e 0000             ADD [EAX], AL
0x01400020 2801             SUB [ECX], AL
0x01400022 40               INC EAX
0x01400023 0100             ADD [EAX], EAX
0x01400025 0000             ADD [EAX], AL
0x01400027 0000             ADD [EAX], AL
0x01400029 004001           ADD [EAX+0x1], AL
0x0140002c 0000             ADD [EAX], AL
0x0140002e 0000             ADD [EAX], AL
0x01400030 0000             ADD [EAX], AL
0x01400032 40               INC EAX
0x01400033 0100             ADD [EAX], EAX
0x01400035 0000             ADD [EAX], AL
0x01400037 008000000000     ADD [EAX+0x0], AL
0x0140003d 0000             ADD [EAX], AL
0x0140003f 00               DB 0x0

Process: wsmprovhost.ex Pid: 6344 Address: 0x19b90000
Vad Tag: VadS Protection: PAGE_EXECUTE_READWRITE
Flags: CommitCharge: 41, PrivateMemory: 1, Protection: 6

0x19b90000  00 00 00 00 00 00 00 00 a5 ac 5e fe 82 e6 00 01   ..........^.....
0x19b90010  ee ff ee ff 00 00 00 00 28 01 b9 19 00 00 00 00   ........(.......
0x19b90020  28 01 b9 19 00 00 00 00 00 00 b9 19 00 00 00 00   (...............
0x19b90030  00 00 b9 19 00 00 00 00 80 00 00 00 00 00 00 00   ................

0x19b90000 0000             ADD [EAX], AL
0x19b90002 0000             ADD [EAX], AL
0x19b90004 0000             ADD [EAX], AL
0x19b90006 0000             ADD [EAX], AL
0x19b90008 a5               MOVSD
0x19b90009 ac               LODSB
0x19b9000a 5e               POP ESI
0x19b9000b fe82e60001ee     INC BYTE [EDX-0x11feff1a]
0x19b90011 ff               DB 0xff
0x19b90012 ee               OUT DX, AL
0x19b90013 ff00             INC DWORD [EAX]
0x19b90015 0000             ADD [EAX], AL
0x19b90017 0028             ADD [EAX], CH
0x19b90019 01b919000000     ADD [ECX+0x19], EDI
0x19b9001f 0028             ADD [EAX], CH
0x19b90021 01b919000000     ADD [ECX+0x19], EDI
0x19b90027 0000             ADD [EAX], AL
0x19b90029 00b919000000     ADD [ECX+0x19], BH
0x19b9002f 0000             ADD [EAX], AL
0x19b90031 00b919000000     ADD [ECX+0x19], BH
0x19b90037 008000000000     ADD [EAX+0x0], AL
0x19b9003d 0000             ADD [EAX], AL
0x19b9003f 00               DB 0x0

Process: wsmprovhost.ex Pid: 6344 Address: 0x7fffff00000
Vad Tag: VadS Protection: PAGE_EXECUTE_READWRITE
Flags: CommitCharge: 2, PrivateMemory: 1, Protection: 6

0x7fffff00000  d8 ff ff ff ff ff ff ff 08 00 00 00 00 00 00 00   ................
0x7fffff00010  01 00 00 00 00 00 00 00 00 02 0e 03 38 00 00 00   ............8...
0x7fffff00020  68 41 b8 07 0c 00 00 00 28 8b 6d ed fe 07 00 00   hA......(.m.....
0x7fffff00030  00 10 02 ed fe 07 00 00 c8 41 0e ed fe 07 00 00   .........A......

0xfff00000 d8ff             FDIVR ST0, ST7
0xfff00002 ff               DB 0xff
0xfff00003 ff               DB 0xff
0xfff00004 ff               DB 0xff
0xfff00005 ff               DB 0xff
0xfff00006 ff               DB 0xff
0xfff00007 ff08             DEC DWORD [EAX]
0xfff00009 0000             ADD [EAX], AL
0xfff0000b 0000             ADD [EAX], AL
0xfff0000d 0000             ADD [EAX], AL
0xfff0000f 0001             ADD [ECX], AL
0xfff00011 0000             ADD [EAX], AL
0xfff00013 0000             ADD [EAX], AL
0xfff00015 0000             ADD [EAX], AL
0xfff00017 0000             ADD [EAX], AL
0xfff00019 020e             ADD CL, [ESI]
0xfff0001b 0338             ADD EDI, [EAX]
0xfff0001d 0000             ADD [EAX], AL
0xfff0001f 006841           ADD [EAX+0x41], CH
0xfff00022 b8070c0000       MOV EAX, 0xc07
0xfff00027 0028             ADD [EAX], CH
0xfff00029 8b6ded           MOV EBP, [EBP-0x13]
0xfff0002c fe07             INC BYTE [EDI]
0xfff0002e 0000             ADD [EAX], AL
0xfff00030 0010             ADD [EAX], DL
0xfff00032 02ed             ADD CH, CH
0xfff00034 fe07             INC BYTE [EDI]
0xfff00036 0000             ADD [EAX], AL
0xfff00038 c8410eed         ENTER 0xe41, 0xed
0xfff0003c fe07             INC BYTE [EDI]
0xfff0003e 0000             ADD [EAX], AL

Process: wsmprovhost.ex Pid: 6344 Address: 0x7ffffef0000
Vad Tag: VadS Protection: PAGE_EXECUTE_READWRITE
Flags: CommitCharge: 1, PrivateMemory: 1, Protection: 6

0x7ffffef0000  00 00 00 00 00 00 00 00 78 0d 00 00 00 00 00 00   ........x.......
0x7ffffef0010  0c 00 00 00 49 c7 c2 00 00 00 00 48 b8 80 1a 55   ....I......H...U
0x7ffffef0020  ee fe 07 00 00 ff e0 49 c7 c2 01 00 00 00 48 b8   .......I......H.
0x7ffffef0030  80 1a 55 ee fe 07 00 00 ff e0 49 c7 c2 02 00 00   ..U.......I.....

0xffef0000 0000             ADD [EAX], AL
0xffef0002 0000             ADD [EAX], AL
0xffef0004 0000             ADD [EAX], AL
0xffef0006 0000             ADD [EAX], AL
0xffef0008 780d             JS 0xffef0017
0xffef000a 0000             ADD [EAX], AL
0xffef000c 0000             ADD [EAX], AL
0xffef000e 0000             ADD [EAX], AL
0xffef0010 0c00             OR AL, 0x0
0xffef0012 0000             ADD [EAX], AL
0xffef0014 49               DEC ECX
0xffef0015 c7c200000000     MOV EDX, 0x0
0xffef001b 48               DEC EAX
0xffef001c b8801a55ee       MOV EAX, 0xee551a80
0xffef0021 fe07             INC BYTE [EDI]
0xffef0023 0000             ADD [EAX], AL
0xffef0025 ffe0             JMP EAX
0xffef0027 49               DEC ECX
0xffef0028 c7c201000000     MOV EDX, 0x1
0xffef002e 48               DEC EAX
0xffef002f b8801a55ee       MOV EAX, 0xee551a80
0xffef0034 fe07             INC BYTE [EDI]
0xffef0036 0000             ADD [EAX], AL
0xffef0038 ffe0             JMP EAX
0xffef003a 49               DEC ECX
0xffef003b c7               DB 0xc7
0xffef003c c20200           RET 0x2
0xffef003f 00               DB 0x0

