Process: GoogleUpdate.e Pid: 2412 Address: 0x140000
Vad Tag: VadS Protection: PAGE_EXECUTE_READWRITE
Flags: CommitCharge: 1, MemCommit: 1, PrivateMemory: 1, Protection: 6

0x00140000  00 00 00 00 00 00 00 00 00 00 00 00 00 00 00 00   ................
0x00140010  00 00 14 00 00 00 00 00 00 00 00 00 00 00 00 00   ................
0x00140020  10 00 14 00 00 00 00 00 00 00 00 00 00 00 00 00   ................
0x00140030  20 00 14 00 00 00 00 00 00 00 00 00 00 00 00 00   ................

0x00140000 0000             ADD [EAX], AL
0x00140002 0000             ADD [EAX], AL
0x00140004 0000             ADD [EAX], AL
0x00140006 0000             ADD [EAX], AL
0x00140008 0000             ADD [EAX], AL
0x0014000a 0000             ADD [EAX], AL
0x0014000c 0000             ADD [EAX], AL
0x0014000e 0000             ADD [EAX], AL
0x00140010 0000             ADD [EAX], AL
0x00140012 1400             ADC AL, 0x0
0x00140014 0000             ADD [EAX], AL
0x00140016 0000             ADD [EAX], AL
0x00140018 0000             ADD [EAX], AL
0x0014001a 0000             ADD [EAX], AL
0x0014001c 0000             ADD [EAX], AL
0x0014001e 0000             ADD [EAX], AL
0x00140020 1000             ADC [EAX], AL
0x00140022 1400             ADC AL, 0x0
0x00140024 0000             ADD [EAX], AL
0x00140026 0000             ADD [EAX], AL
0x00140028 0000             ADD [EAX], AL
0x0014002a 0000             ADD [EAX], AL
0x0014002c 0000             ADD [EAX], AL
0x0014002e 0000             ADD [EAX], AL
0x00140030 2000             AND [EAX], AL
0x00140032 1400             ADC AL, 0x0
0x00140034 0000             ADD [EAX], AL
0x00140036 0000             ADD [EAX], AL
0x00140038 0000             ADD [EAX], AL
0x0014003a 0000             ADD [EAX], AL
0x0014003c 0000             ADD [EAX], AL
0x0014003e 0000             ADD [EAX], AL

Process: svchost.exe Pid: 3336 Address: 0x6600000
Vad Tag: VadS Protection: PAGE_EXECUTE_READWRITE
Flags: CommitCharge: 128, MemCommit: 1, PrivateMemory: 1, Protection: 6

0x06600000  20 00 00 00 e0 ff 07 00 0c 00 00 00 01 00 07 00   ................
0x06600010  00 42 00 30 00 70 00 60 00 50 00 c0 00 d0 00 00   .B.0.p.`.P......
0x06600020  08 00 42 00 00 00 00 05 48 8b 45 20 48 89 c2 48   ..B.....H.E.H..H
0x06600030  8b 45 18 48 8b 00 48 89 02 48 8b 45 20 81 00 a0   .E.H..H..H.E....

0x06600000 2000             AND [EAX], AL
0x06600002 0000             ADD [EAX], AL
0x06600004 e0ff             LOOPNZ 0x6600005
0x06600006 07               POP ES
0x06600007 000c00           ADD [EAX+EAX], CL
0x0660000a 0000             ADD [EAX], AL
0x0660000c 0100             ADD [EAX], EAX
0x0660000e 07               POP ES
0x0660000f 0000             ADD [EAX], AL
0x06600011 42               INC EDX
0x06600012 0030             ADD [EAX], DH
0x06600014 007000           ADD [EAX+0x0], DH
0x06600017 60               PUSHA
0x06600018 005000           ADD [EAX+0x0], DL
0x0660001b c000d0           ROL BYTE [EAX], 0xd0
0x0660001e 0000             ADD [EAX], AL
0x06600020 0800             OR [EAX], AL
0x06600022 42               INC EDX
0x06600023 0000             ADD [EAX], AL
0x06600025 0000             ADD [EAX], AL
0x06600027 05488b4520       ADD EAX, 0x20458b48
0x0660002c 48               DEC EAX
0x0660002d 89c2             MOV EDX, EAX
0x0660002f 48               DEC EAX
0x06600030 8b4518           MOV EAX, [EBP+0x18]
0x06600033 48               DEC EAX
0x06600034 8b00             MOV EAX, [EAX]
0x06600036 48               DEC EAX
0x06600037 8902             MOV [EDX], EAX
0x06600039 48               DEC EAX
0x0660003a 8b4520           MOV EAX, [EBP+0x20]
0x0660003d 81               DB 0x81
0x0660003e 00               DB 0x0
0x0660003f a0               DB 0xa0

Process: svchost.exe Pid: 3336 Address: 0xd350000
Vad Tag: VadS Protection: PAGE_EXECUTE_READWRITE
Flags: CommitCharge: 256, MemCommit: 1, PrivateMemory: 1, Protection: 6

0x0d350000  20 00 00 00 e0 ff 0f 00 0c 00 00 00 01 00 07 00   ................
0x0d350010  00 42 00 30 00 70 00 60 00 50 00 c0 00 d0 00 00   .B.0.p.`.P......
0x0d350020  09 00 38 00 09 00 01 05 8b 55 18 8b 4d 54 8d 54   ..8......U..MT.T
0x0d350030  0a fc 89 d7 b9 04 00 1a 00 ff 56 28 8b 4d 1c 89   ..........V(.M..

0x0d350000 2000             AND [EAX], AL
0x0d350002 0000             ADD [EAX], AL
0x0d350004 e0ff             LOOPNZ 0xd350005
0x0d350006 0f000c00         STR WORD [EAX+EAX]
0x0d35000a 0000             ADD [EAX], AL
0x0d35000c 0100             ADD [EAX], EAX
0x0d35000e 07               POP ES
0x0d35000f 0000             ADD [EAX], AL
0x0d350011 42               INC EDX
0x0d350012 0030             ADD [EAX], DH
0x0d350014 007000           ADD [EAX+0x0], DH
0x0d350017 60               PUSHA
0x0d350018 005000           ADD [EAX+0x0], DL
0x0d35001b c000d0           ROL BYTE [EAX], 0xd0
0x0d35001e 0000             ADD [EAX], AL
0x0d350020 0900             OR [EAX], EAX
0x0d350022 3800             CMP [EAX], AL
0x0d350024 0900             OR [EAX], EAX
0x0d350026 01058b55188b     ADD [0x8b18558b], EAX
0x0d35002c 4d               DEC EBP
0x0d35002d 54               PUSH ESP
0x0d35002e 8d540afc         LEA EDX, [EDX+ECX-0x4]
0x0d350032 89d7             MOV EDI, EDX
0x0d350034 b904001a00       MOV ECX, 0x1a0004
0x0d350039 ff5628           CALL DWORD [ESI+0x28]
0x0d35003c 8b4d1c           MOV ECX, [EBP+0x1c]
0x0d35003f 89               DB 0x89

Process: wsmprovhost.ex Pid: 3912 Address: 0x16e0000
Vad Tag: VadS Protection: PAGE_EXECUTE_READWRITE
Flags: CommitCharge: 2, PrivateMemory: 1, Protection: 6

0x016e0000  00 00 00 00 00 00 00 00 9d af 38 d2 00 50 00 01   ..........8..P..
0x016e0010  ee ff ee ff 00 00 00 00 28 01 6e 01 00 00 00 00   ........(.n.....
0x016e0020  28 01 6e 01 00 00 00 00 00 00 6e 01 00 00 00 00   (.n.......n.....
0x016e0030  00 00 6e 01 00 00 00 00 80 00 00 00 00 00 00 00   ..n.............

0x016e0000 0000             ADD [EAX], AL
0x016e0002 0000             ADD [EAX], AL
0x016e0004 0000             ADD [EAX], AL
0x016e0006 0000             ADD [EAX], AL
0x016e0008 9d               POPF
0x016e0009 af               SCASD
0x016e000a 38d2             CMP DL, DL
0x016e000c 005000           ADD [EAX+0x0], DL
0x016e000f 01ee             ADD ESI, EBP
0x016e0011 ff               DB 0xff
0x016e0012 ee               OUT DX, AL
0x016e0013 ff00             INC DWORD [EAX]
0x016e0015 0000             ADD [EAX], AL
0x016e0017 0028             ADD [EAX], CH
0x016e0019 016e01           ADD [ESI+0x1], EBP
0x016e001c 0000             ADD [EAX], AL
0x016e001e 0000             ADD [EAX], AL
0x016e0020 2801             SUB [ECX], AL
0x016e0022 6e               OUTS DX, BYTE [ESI]
0x016e0023 0100             ADD [EAX], EAX
0x016e0025 0000             ADD [EAX], AL
0x016e0027 0000             ADD [EAX], AL
0x016e0029 006e01           ADD [ESI+0x1], CH
0x016e002c 0000             ADD [EAX], AL
0x016e002e 0000             ADD [EAX], AL
0x016e0030 0000             ADD [EAX], AL
0x016e0032 6e               OUTS DX, BYTE [ESI]
0x016e0033 0100             ADD [EAX], EAX
0x016e0035 0000             ADD [EAX], AL
0x016e0037 008000000000     ADD [EAX+0x0], AL
0x016e003d 0000             ADD [EAX], AL
0x016e003f 00               DB 0x0

Process: wsmprovhost.ex Pid: 3912 Address: 0x1520000
Vad Tag: VadS Protection: PAGE_EXECUTE_READWRITE
Flags: CommitCharge: 2, PrivateMemory: 1, Protection: 6

0x01520000  00 00 00 00 00 00 00 00 02 64 9a bd 33 3c 00 01   .........d..3<..
0x01520010  ee ff ee ff 00 00 00 00 28 01 52 01 00 00 00 00   ........(.R.....
0x01520020  28 01 52 01 00 00 00 00 00 00 52 01 00 00 00 00   (.R.......R.....
0x01520030  00 00 52 01 00 00 00 00 80 00 00 00 00 00 00 00   ..R.............

0x01520000 0000             ADD [EAX], AL
0x01520002 0000             ADD [EAX], AL
0x01520004 0000             ADD [EAX], AL
0x01520006 0000             ADD [EAX], AL
0x01520008 02649abd         ADD AH, [EDX+EBX*4-0x43]
0x0152000c 333c00           XOR EDI, [EAX+EAX]
0x0152000f 01ee             ADD ESI, EBP
0x01520011 ff               DB 0xff
0x01520012 ee               OUT DX, AL
0x01520013 ff00             INC DWORD [EAX]
0x01520015 0000             ADD [EAX], AL
0x01520017 0028             ADD [EAX], CH
0x01520019 015201           ADD [EDX+0x1], EDX
0x0152001c 0000             ADD [EAX], AL
0x0152001e 0000             ADD [EAX], AL
0x01520020 2801             SUB [ECX], AL
0x01520022 52               PUSH EDX
0x01520023 0100             ADD [EAX], EAX
0x01520025 0000             ADD [EAX], AL
0x01520027 0000             ADD [EAX], AL
0x01520029 005201           ADD [EDX+0x1], DL
0x0152002c 0000             ADD [EAX], AL
0x0152002e 0000             ADD [EAX], AL
0x01520030 0000             ADD [EAX], AL
0x01520032 52               PUSH EDX
0x01520033 0100             ADD [EAX], EAX
0x01520035 0000             ADD [EAX], AL
0x01520037 008000000000     ADD [EAX+0x0], AL
0x0152003d 0000             ADD [EAX], AL
0x0152003f 00               DB 0x0

Process: wsmprovhost.ex Pid: 3912 Address: 0x19a30000
Vad Tag: VadS Protection: PAGE_EXECUTE_READWRITE
Flags: CommitCharge: 41, PrivateMemory: 1, Protection: 6

0x19a30000  00 00 00 00 00 00 00 00 27 0b bc a7 d6 0e 00 01   ........'.......
0x19a30010  ee ff ee ff 00 00 00 00 28 01 a3 19 00 00 00 00   ........(.......
0x19a30020  28 01 a3 19 00 00 00 00 00 00 a3 19 00 00 00 00   (...............
0x19a30030  00 00 a3 19 00 00 00 00 80 00 00 00 00 00 00 00   ................

0x19a30000 0000             ADD [EAX], AL
0x19a30002 0000             ADD [EAX], AL
0x19a30004 0000             ADD [EAX], AL
0x19a30006 0000             ADD [EAX], AL
0x19a30008 27               DAA
0x19a30009 0bbca7d60e0001   OR EDI, [EDI+0x1000ed6]
0x19a30010 ee               OUT DX, AL
0x19a30011 ff               DB 0xff
0x19a30012 ee               OUT DX, AL
0x19a30013 ff00             INC DWORD [EAX]
0x19a30015 0000             ADD [EAX], AL
0x19a30017 0028             ADD [EAX], CH
0x19a30019 01a319000000     ADD [EBX+0x19], ESP
0x19a3001f 0028             ADD [EAX], CH
0x19a30021 01a319000000     ADD [EBX+0x19], ESP
0x19a30027 0000             ADD [EAX], AL
0x19a30029 00a319000000     ADD [EBX+0x19], AH
0x19a3002f 0000             ADD [EAX], AL
0x19a30031 00a319000000     ADD [EBX+0x19], AH
0x19a30037 008000000000     ADD [EAX+0x0], AL
0x19a3003d 0000             ADD [EAX], AL
0x19a3003f 00               DB 0x0

Process: wsmprovhost.ex Pid: 3912 Address: 0x7fffff00000
Vad Tag: VadS Protection: PAGE_EXECUTE_READWRITE
Flags: CommitCharge: 2, PrivateMemory: 1, Protection: 6

0x7fffff00000  d8 ff ff ff ff ff ff ff 08 00 00 00 00 00 00 00   ................
0x7fffff00010  01 00 00 00 00 00 00 00 00 02 0e 03 38 00 00 00   ............8...
0x7fffff00020  68 41 b8 07 45 00 00 00 28 8b a5 ec fe 07 00 00   hA..E...(.......
0x7fffff00030  00 10 3a ec fe 07 00 00 c8 41 46 ec fe 07 00 00   ..:......AF.....

0xfff00000 d8ff             FDIVR ST0, ST7
0xfff00002 ff               DB 0xff
0xfff00003 ff               DB 0xff
0xfff00004 ff               DB 0xff
0xfff00005 ff               DB 0xff
0xfff00006 ff               DB 0xff
0xfff00007 ff08             DEC DWORD [EAX]
0xfff00009 0000             ADD [EAX], AL
0xfff0000b 0000             ADD [EAX], AL
0xfff0000d 0000             ADD [EAX], AL
0xfff0000f 0001             ADD [ECX], AL
0xfff00011 0000             ADD [EAX], AL
0xfff00013 0000             ADD [EAX], AL
0xfff00015 0000             ADD [EAX], AL
0xfff00017 0000             ADD [EAX], AL
0xfff00019 020e             ADD CL, [ESI]
0xfff0001b 0338             ADD EDI, [EAX]
0xfff0001d 0000             ADD [EAX], AL
0xfff0001f 006841           ADD [EAX+0x41], CH
0xfff00022 b807450000       MOV EAX, 0x4507
0xfff00027 0028             ADD [EAX], CH
0xfff00029 8ba5ecfe0700     MOV ESP, [EBP+0x7feec]
0xfff0002f 0000             ADD [EAX], AL
0xfff00031 103a             ADC [EDX], BH
0xfff00033 ec               IN AL, DX
0xfff00034 fe07             INC BYTE [EDI]
0xfff00036 0000             ADD [EAX], AL
0xfff00038 c84146ec         ENTER 0x4641, 0xec
0xfff0003c fe07             INC BYTE [EDI]
0xfff0003e 0000             ADD [EAX], AL

Process: wsmprovhost.ex Pid: 3912 Address: 0x7ffffef0000
Vad Tag: VadS Protection: PAGE_EXECUTE_READWRITE
Flags: CommitCharge: 1, PrivateMemory: 1, Protection: 6

0x7ffffef0000  00 00 00 00 00 00 00 00 78 0d 00 00 00 00 00 00   ........x.......
0x7ffffef0010  45 00 00 00 49 c7 c2 00 00 00 00 48 b8 80 1a 8d   E...I......H....
0x7ffffef0020  ed fe 07 00 00 ff e0 49 c7 c2 01 00 00 00 48 b8   .......I......H.
0x7ffffef0030  80 1a 8d ed fe 07 00 00 ff e0 49 c7 c2 02 00 00   ..........I.....

0xffef0000 0000             ADD [EAX], AL
0xffef0002 0000             ADD [EAX], AL
0xffef0004 0000             ADD [EAX], AL
0xffef0006 0000             ADD [EAX], AL
0xffef0008 780d             JS 0xffef0017
0xffef000a 0000             ADD [EAX], AL
0xffef000c 0000             ADD [EAX], AL
0xffef000e 0000             ADD [EAX], AL
0xffef0010 45               INC EBP
0xffef0011 0000             ADD [EAX], AL
0xffef0013 0049c7           ADD [ECX-0x39], CL
0xffef0016 c20000           RET 0x0
0xffef0019 0000             ADD [EAX], AL
0xffef001b 48               DEC EAX
0xffef001c b8801a8ded       MOV EAX, 0xed8d1a80
0xffef0021 fe07             INC BYTE [EDI]
0xffef0023 0000             ADD [EAX], AL
0xffef0025 ffe0             JMP EAX
0xffef0027 49               DEC ECX
0xffef0028 c7c201000000     MOV EDX, 0x1
0xffef002e 48               DEC EAX
0xffef002f b8801a8ded       MOV EAX, 0xed8d1a80
0xffef0034 fe07             INC BYTE [EDI]
0xffef0036 0000             ADD [EAX], AL
0xffef0038 ffe0             JMP EAX
0xffef003a 49               DEC ECX
0xffef003b c7               DB 0xc7
0xffef003c c20200           RET 0x2
0xffef003f 00               DB 0x0

Process: LogonUI.exe Pid: 6640 Address: 0x2b50000
Vad Tag: VadS Protection: PAGE_EXECUTE_READWRITE
Flags: CommitCharge: 1, MemCommit: 1, PrivateMemory: 1, Protection: 6

0x02b50000  00 00 00 00 00 00 00 00 00 00 00 00 00 00 00 00   ................
0x02b50010  00 00 00 00 00 00 00 00 00 00 00 00 00 00 00 00   ................
0x02b50020  00 00 b5 02 00 00 00 00 00 00 00 00 00 00 00 00   ................
0x02b50030  00 00 00 00 00 00 00 00 00 00 00 00 00 00 00 00   ................

0x02b50000 0000             ADD [EAX], AL
0x02b50002 0000             ADD [EAX], AL
0x02b50004 0000             ADD [EAX], AL
0x02b50006 0000             ADD [EAX], AL
0x02b50008 0000             ADD [EAX], AL
0x02b5000a 0000             ADD [EAX], AL
0x02b5000c 0000             ADD [EAX], AL
0x02b5000e 0000             ADD [EAX], AL
0x02b50010 0000             ADD [EAX], AL
0x02b50012 0000             ADD [EAX], AL
0x02b50014 0000             ADD [EAX], AL
0x02b50016 0000             ADD [EAX], AL
0x02b50018 0000             ADD [EAX], AL
0x02b5001a 0000             ADD [EAX], AL
0x02b5001c 0000             ADD [EAX], AL
0x02b5001e 0000             ADD [EAX], AL
0x02b50020 0000             ADD [EAX], AL
0x02b50022 b502             MOV CH, 0x2
0x02b50024 0000             ADD [EAX], AL
0x02b50026 0000             ADD [EAX], AL
0x02b50028 0000             ADD [EAX], AL
0x02b5002a 0000             ADD [EAX], AL
0x02b5002c 0000             ADD [EAX], AL
0x02b5002e 0000             ADD [EAX], AL
0x02b50030 0000             ADD [EAX], AL
0x02b50032 0000             ADD [EAX], AL
0x02b50034 0000             ADD [EAX], AL
0x02b50036 0000             ADD [EAX], AL
0x02b50038 0000             ADD [EAX], AL
0x02b5003a 0000             ADD [EAX], AL
0x02b5003c 0000             ADD [EAX], AL
0x02b5003e 0000             ADD [EAX], AL

Process: wsmprovhost.ex Pid: 4256 Address: 0x14f0000
Vad Tag: VadS Protection: PAGE_EXECUTE_READWRITE
Flags: CommitCharge: 2, PrivateMemory: 1, Protection: 6

0x014f0000  00 00 00 00 00 00 00 00 12 b9 dd dc 89 15 00 01   ................
0x014f0010  ee ff ee ff 00 00 00 00 28 01 4f 01 00 00 00 00   ........(.O.....
0x014f0020  28 01 4f 01 00 00 00 00 00 00 4f 01 00 00 00 00   (.O.......O.....
0x014f0030  00 00 4f 01 00 00 00 00 80 00 00 00 00 00 00 00   ..O.............

0x014f0000 0000             ADD [EAX], AL
0x014f0002 0000             ADD [EAX], AL
0x014f0004 0000             ADD [EAX], AL
0x014f0006 0000             ADD [EAX], AL
0x014f0008 12b9dddc8915     ADC BH, [ECX+0x1589dcdd]
0x014f000e 0001             ADD [ECX], AL
0x014f0010 ee               OUT DX, AL
0x014f0011 ff               DB 0xff
0x014f0012 ee               OUT DX, AL
0x014f0013 ff00             INC DWORD [EAX]
0x014f0015 0000             ADD [EAX], AL
0x014f0017 0028             ADD [EAX], CH
0x014f0019 014f01           ADD [EDI+0x1], ECX
0x014f001c 0000             ADD [EAX], AL
0x014f001e 0000             ADD [EAX], AL
0x014f0020 2801             SUB [ECX], AL
0x014f0022 4f               DEC EDI
0x014f0023 0100             ADD [EAX], EAX
0x014f0025 0000             ADD [EAX], AL
0x014f0027 0000             ADD [EAX], AL
0x014f0029 004f01           ADD [EDI+0x1], CL
0x014f002c 0000             ADD [EAX], AL
0x014f002e 0000             ADD [EAX], AL
0x014f0030 0000             ADD [EAX], AL
0x014f0032 4f               DEC EDI
0x014f0033 0100             ADD [EAX], EAX
0x014f0035 0000             ADD [EAX], AL
0x014f0037 008000000000     ADD [EAX+0x0], AL
0x014f003d 0000             ADD [EAX], AL
0x014f003f 00               DB 0x0

Process: wsmprovhost.ex Pid: 4256 Address: 0x10d0000
Vad Tag: VadS Protection: PAGE_EXECUTE_READWRITE
Flags: CommitCharge: 41, PrivateMemory: 1, Protection: 6

0x010d0000  00 00 00 00 00 00 00 00 2c 74 1d b0 6d 18 00 01   ........,t..m...
0x010d0010  ee ff ee ff 00 00 00 00 28 01 0d 01 00 00 00 00   ........(.......
0x010d0020  28 01 0d 01 00 00 00 00 00 00 0d 01 00 00 00 00   (...............
0x010d0030  00 00 0d 01 00 00 00 00 80 00 00 00 00 00 00 00   ................

0x010d0000 0000             ADD [EAX], AL
0x010d0002 0000             ADD [EAX], AL
0x010d0004 0000             ADD [EAX], AL
0x010d0006 0000             ADD [EAX], AL
0x010d0008 2c74             SUB AL, 0x74
0x010d000a 1db06d1800       SBB EAX, 0x186db0
0x010d000f 01ee             ADD ESI, EBP
0x010d0011 ff               DB 0xff
0x010d0012 ee               OUT DX, AL
0x010d0013 ff00             INC DWORD [EAX]
0x010d0015 0000             ADD [EAX], AL
0x010d0017 0028             ADD [EAX], CH
0x010d0019 010d01000000     ADD [0x1], ECX
0x010d001f 0028             ADD [EAX], CH
0x010d0021 010d01000000     ADD [0x1], ECX
0x010d0027 0000             ADD [EAX], AL
0x010d0029 000d01000000     ADD [0x1], CL
0x010d002f 0000             ADD [EAX], AL
0x010d0031 000d01000000     ADD [0x1], CL
0x010d0037 008000000000     ADD [EAX+0x0], AL
0x010d003d 0000             ADD [EAX], AL
0x010d003f 00               DB 0x0

Process: wsmprovhost.ex Pid: 4256 Address: 0x1620000
Vad Tag: VadS Protection: PAGE_EXECUTE_READWRITE
Flags: CommitCharge: 2, PrivateMemory: 1, Protection: 6

0x01620000  00 00 00 00 00 00 00 00 48 ff 1d 87 1a 47 00 01   ........H....G..
0x01620010  ee ff ee ff 00 00 00 00 28 01 62 01 00 00 00 00   ........(.b.....
0x01620020  28 01 62 01 00 00 00 00 00 00 62 01 00 00 00 00   (.b.......b.....
0x01620030  00 00 62 01 00 00 00 00 80 00 00 00 00 00 00 00   ..b.............

0x01620000 0000             ADD [EAX], AL
0x01620002 0000             ADD [EAX], AL
0x01620004 0000             ADD [EAX], AL
0x01620006 0000             ADD [EAX], AL
0x01620008 48               DEC EAX
0x01620009 ff1d871a4700     CALL FAR DWORD [0x471a87]
0x0162000f 01ee             ADD ESI, EBP
0x01620011 ff               DB 0xff
0x01620012 ee               OUT DX, AL
0x01620013 ff00             INC DWORD [EAX]
0x01620015 0000             ADD [EAX], AL
0x01620017 0028             ADD [EAX], CH
0x01620019 016201           ADD [EDX+0x1], ESP
0x0162001c 0000             ADD [EAX], AL
0x0162001e 0000             ADD [EAX], AL
0x01620020 2801             SUB [ECX], AL
0x01620022 6201             BOUND EAX, [ECX]
0x01620024 0000             ADD [EAX], AL
0x01620026 0000             ADD [EAX], AL
0x01620028 0000             ADD [EAX], AL
0x0162002a 6201             BOUND EAX, [ECX]
0x0162002c 0000             ADD [EAX], AL
0x0162002e 0000             ADD [EAX], AL
0x01620030 0000             ADD [EAX], AL
0x01620032 6201             BOUND EAX, [ECX]
0x01620034 0000             ADD [EAX], AL
0x01620036 0000             ADD [EAX], AL
0x01620038 800000           ADD BYTE [EAX], 0x0
0x0162003b 0000             ADD [EAX], AL
0x0162003d 0000             ADD [EAX], AL
0x0162003f 00               DB 0x0

Process: wsmprovhost.ex Pid: 4256 Address: 0x7fffff00000
Vad Tag: VadS Protection: PAGE_EXECUTE_READWRITE
Flags: CommitCharge: 2, PrivateMemory: 1, Protection: 6

0x7fffff00000  d8 ff ff ff ff ff ff ff 08 00 00 00 00 00 00 00   ................
0x7fffff00010  01 00 00 00 00 00 00 00 00 02 0e 03 38 00 00 00   ............8...
0x7fffff00020  68 41 b8 07 0c 00 00 00 28 8b a5 ec fe 07 00 00   hA......(.......
0x7fffff00030  00 10 3a ec fe 07 00 00 c8 41 46 ec fe 07 00 00   ..:......AF.....

0xfff00000 d8ff             FDIVR ST0, ST7
0xfff00002 ff               DB 0xff
0xfff00003 ff               DB 0xff
0xfff00004 ff               DB 0xff
0xfff00005 ff               DB 0xff
0xfff00006 ff               DB 0xff
0xfff00007 ff08             DEC DWORD [EAX]
0xfff00009 0000             ADD [EAX], AL
0xfff0000b 0000             ADD [EAX], AL
0xfff0000d 0000             ADD [EAX], AL
0xfff0000f 0001             ADD [ECX], AL
0xfff00011 0000             ADD [EAX], AL
0xfff00013 0000             ADD [EAX], AL
0xfff00015 0000             ADD [EAX], AL
0xfff00017 0000             ADD [EAX], AL
0xfff00019 020e             ADD CL, [ESI]
0xfff0001b 0338             ADD EDI, [EAX]
0xfff0001d 0000             ADD [EAX], AL
0xfff0001f 006841           ADD [EAX+0x41], CH
0xfff00022 b8070c0000       MOV EAX, 0xc07
0xfff00027 0028             ADD [EAX], CH
0xfff00029 8ba5ecfe0700     MOV ESP, [EBP+0x7feec]
0xfff0002f 0000             ADD [EAX], AL
0xfff00031 103a             ADC [EDX], BH
0xfff00033 ec               IN AL, DX
0xfff00034 fe07             INC BYTE [EDI]
0xfff00036 0000             ADD [EAX], AL
0xfff00038 c84146ec         ENTER 0x4641, 0xec
0xfff0003c fe07             INC BYTE [EDI]
0xfff0003e 0000             ADD [EAX], AL

Process: wsmprovhost.ex Pid: 4256 Address: 0x7ffffef0000
Vad Tag: VadS Protection: PAGE_EXECUTE_READWRITE
Flags: CommitCharge: 1, PrivateMemory: 1, Protection: 6

0x7ffffef0000  00 00 00 00 00 00 00 00 78 0d 00 00 00 00 00 00   ........x.......
0x7ffffef0010  0c 00 00 00 49 c7 c2 00 00 00 00 48 b8 80 1a 8d   ....I......H....
0x7ffffef0020  ed fe 07 00 00 ff e0 49 c7 c2 01 00 00 00 48 b8   .......I......H.
0x7ffffef0030  80 1a 8d ed fe 07 00 00 ff e0 49 c7 c2 02 00 00   ..........I.....

0xffef0000 0000             ADD [EAX], AL
0xffef0002 0000             ADD [EAX], AL
0xffef0004 0000             ADD [EAX], AL
0xffef0006 0000             ADD [EAX], AL
0xffef0008 780d             JS 0xffef0017
0xffef000a 0000             ADD [EAX], AL
0xffef000c 0000             ADD [EAX], AL
0xffef000e 0000             ADD [EAX], AL
0xffef0010 0c00             OR AL, 0x0
0xffef0012 0000             ADD [EAX], AL
0xffef0014 49               DEC ECX
0xffef0015 c7c200000000     MOV EDX, 0x0
0xffef001b 48               DEC EAX
0xffef001c b8801a8ded       MOV EAX, 0xed8d1a80
0xffef0021 fe07             INC BYTE [EDI]
0xffef0023 0000             ADD [EAX], AL
0xffef0025 ffe0             JMP EAX
0xffef0027 49               DEC ECX
0xffef0028 c7c201000000     MOV EDX, 0x1
0xffef002e 48               DEC EAX
0xffef002f b8801a8ded       MOV EAX, 0xed8d1a80
0xffef0034 fe07             INC BYTE [EDI]
0xffef0036 0000             ADD [EAX], AL
0xffef0038 ffe0             JMP EAX
0xffef003a 49               DEC ECX
0xffef003b c7               DB 0xc7
0xffef003c c20200           RET 0x2
0xffef003f 00               DB 0x0

Process: wsmprovhost.ex Pid: 7976 Address: 0x1420000
Vad Tag: VadS Protection: PAGE_EXECUTE_READWRITE
Flags: CommitCharge: 2, PrivateMemory: 1, Protection: 6

0x01420000  00 00 00 00 00 00 00 00 f0 ac 1f ee 90 a1 00 01   ................
0x01420010  ee ff ee ff 00 00 00 00 28 01 42 01 00 00 00 00   ........(.B.....
0x01420020  28 01 42 01 00 00 00 00 00 00 42 01 00 00 00 00   (.B.......B.....
0x01420030  00 00 42 01 00 00 00 00 80 00 00 00 00 00 00 00   ..B.............

0x01420000 0000             ADD [EAX], AL
0x01420002 0000             ADD [EAX], AL
0x01420004 0000             ADD [EAX], AL
0x01420006 0000             ADD [EAX], AL
0x01420008 f0ac             LODSB
0x0142000a 1f               POP DS
0x0142000b ee               OUT DX, AL
0x0142000c 90               NOP
0x0142000d a10001eeff       MOV EAX, [0xffee0100]
0x01420012 ee               OUT DX, AL
0x01420013 ff00             INC DWORD [EAX]
0x01420015 0000             ADD [EAX], AL
0x01420017 0028             ADD [EAX], CH
0x01420019 014201           ADD [EDX+0x1], EAX
0x0142001c 0000             ADD [EAX], AL
0x0142001e 0000             ADD [EAX], AL
0x01420020 2801             SUB [ECX], AL
0x01420022 42               INC EDX
0x01420023 0100             ADD [EAX], EAX
0x01420025 0000             ADD [EAX], AL
0x01420027 0000             ADD [EAX], AL
0x01420029 004201           ADD [EDX+0x1], AL
0x0142002c 0000             ADD [EAX], AL
0x0142002e 0000             ADD [EAX], AL
0x01420030 0000             ADD [EAX], AL
0x01420032 42               INC EDX
0x01420033 0100             ADD [EAX], EAX
0x01420035 0000             ADD [EAX], AL
0x01420037 008000000000     ADD [EAX+0x0], AL
0x0142003d 0000             ADD [EAX], AL
0x0142003f 00               DB 0x0

Process: wsmprovhost.ex Pid: 7976 Address: 0x1550000
Vad Tag: VadS Protection: PAGE_EXECUTE_READWRITE
Flags: CommitCharge: 2, PrivateMemory: 1, Protection: 6

0x01550000  00 00 00 00 00 00 00 00 a3 2b bb 95 e0 6e 00 01   .........+...n..
0x01550010  ee ff ee ff 00 00 00 00 28 01 55 01 00 00 00 00   ........(.U.....
0x01550020  28 01 55 01 00 00 00 00 00 00 55 01 00 00 00 00   (.U.......U.....
0x01550030  00 00 55 01 00 00 00 00 80 00 00 00 00 00 00 00   ..U.............

0x01550000 0000             ADD [EAX], AL
0x01550002 0000             ADD [EAX], AL
0x01550004 0000             ADD [EAX], AL
0x01550006 0000             ADD [EAX], AL
0x01550008 a32bbb95e0       MOV [0xe095bb2b], EAX
0x0155000d 6e               OUTS DX, BYTE [ESI]
0x0155000e 0001             ADD [ECX], AL
0x01550010 ee               OUT DX, AL
0x01550011 ff               DB 0xff
0x01550012 ee               OUT DX, AL
0x01550013 ff00             INC DWORD [EAX]
0x01550015 0000             ADD [EAX], AL
0x01550017 0028             ADD [EAX], CH
0x01550019 015501           ADD [EBP+0x1], EDX
0x0155001c 0000             ADD [EAX], AL
0x0155001e 0000             ADD [EAX], AL
0x01550020 2801             SUB [ECX], AL
0x01550022 55               PUSH EBP
0x01550023 0100             ADD [EAX], EAX
0x01550025 0000             ADD [EAX], AL
0x01550027 0000             ADD [EAX], AL
0x01550029 005501           ADD [EBP+0x1], DL
0x0155002c 0000             ADD [EAX], AL
0x0155002e 0000             ADD [EAX], AL
0x01550030 0000             ADD [EAX], AL
0x01550032 55               PUSH EBP
0x01550033 0100             ADD [EAX], EAX
0x01550035 0000             ADD [EAX], AL
0x01550037 008000000000     ADD [EAX+0x0], AL
0x0155003d 0000             ADD [EAX], AL
0x0155003f 00               DB 0x0

Process: wsmprovhost.ex Pid: 7976 Address: 0x19a70000
Vad Tag: VadS Protection: PAGE_EXECUTE_READWRITE
Flags: CommitCharge: 41, PrivateMemory: 1, Protection: 6

0x19a70000  00 00 00 00 00 00 00 00 19 30 fe 98 a4 b0 00 01   .........0......
0x19a70010  ee ff ee ff 00 00 00 00 28 01 a7 19 00 00 00 00   ........(.......
0x19a70020  28 01 a7 19 00 00 00 00 00 00 a7 19 00 00 00 00   (...............
0x19a70030  00 00 a7 19 00 00 00 00 80 00 00 00 00 00 00 00   ................

0x19a70000 0000             ADD [EAX], AL
0x19a70002 0000             ADD [EAX], AL
0x19a70004 0000             ADD [EAX], AL
0x19a70006 0000             ADD [EAX], AL
0x19a70008 1930             SBB [EAX], ESI
0x19a7000a fe               DB 0xfe
0x19a7000b 98               CWDE
0x19a7000c a4               MOVSB
0x19a7000d b000             MOV AL, 0x0
0x19a7000f 01ee             ADD ESI, EBP
0x19a70011 ff               DB 0xff
0x19a70012 ee               OUT DX, AL
0x19a70013 ff00             INC DWORD [EAX]
0x19a70015 0000             ADD [EAX], AL
0x19a70017 0028             ADD [EAX], CH
0x19a70019 01a719000000     ADD [EDI+0x19], ESP
0x19a7001f 0028             ADD [EAX], CH
0x19a70021 01a719000000     ADD [EDI+0x19], ESP
0x19a70027 0000             ADD [EAX], AL
0x19a70029 00a719000000     ADD [EDI+0x19], AH
0x19a7002f 0000             ADD [EAX], AL
0x19a70031 00a719000000     ADD [EDI+0x19], AH
0x19a70037 008000000000     ADD [EAX+0x0], AL
0x19a7003d 0000             ADD [EAX], AL
0x19a7003f 00               DB 0x0

Process: wsmprovhost.ex Pid: 7976 Address: 0x7fffff00000
Vad Tag: VadS Protection: PAGE_EXECUTE_READWRITE
Flags: CommitCharge: 2, PrivateMemory: 1, Protection: 6

0x7fffff00000  d8 ff ff ff ff ff ff ff 08 00 00 00 00 00 00 00   ................
0x7fffff00010  01 00 00 00 00 00 00 00 00 02 0e 03 38 00 00 00   ............8...
0x7fffff00020  68 41 b8 07 0c 00 00 00 28 8b a5 ec fe 07 00 00   hA......(.......
0x7fffff00030  00 10 3a ec fe 07 00 00 c8 41 46 ec fe 07 00 00   ..:......AF.....

0xfff00000 d8ff             FDIVR ST0, ST7
0xfff00002 ff               DB 0xff
0xfff00003 ff               DB 0xff
0xfff00004 ff               DB 0xff
0xfff00005 ff               DB 0xff
0xfff00006 ff               DB 0xff
0xfff00007 ff08             DEC DWORD [EAX]
0xfff00009 0000             ADD [EAX], AL
0xfff0000b 0000             ADD [EAX], AL
0xfff0000d 0000             ADD [EAX], AL
0xfff0000f 0001             ADD [ECX], AL
0xfff00011 0000             ADD [EAX], AL
0xfff00013 0000             ADD [EAX], AL
0xfff00015 0000             ADD [EAX], AL
0xfff00017 0000             ADD [EAX], AL
0xfff00019 020e             ADD CL, [ESI]
0xfff0001b 0338             ADD EDI, [EAX]
0xfff0001d 0000             ADD [EAX], AL
0xfff0001f 006841           ADD [EAX+0x41], CH
0xfff00022 b8070c0000       MOV EAX, 0xc07
0xfff00027 0028             ADD [EAX], CH
0xfff00029 8ba5ecfe0700     MOV ESP, [EBP+0x7feec]
0xfff0002f 0000             ADD [EAX], AL
0xfff00031 103a             ADC [EDX], BH
0xfff00033 ec               IN AL, DX
0xfff00034 fe07             INC BYTE [EDI]
0xfff00036 0000             ADD [EAX], AL
0xfff00038 c84146ec         ENTER 0x4641, 0xec
0xfff0003c fe07             INC BYTE [EDI]
0xfff0003e 0000             ADD [EAX], AL

Process: wsmprovhost.ex Pid: 7976 Address: 0x7ffffef0000
Vad Tag: VadS Protection: PAGE_EXECUTE_READWRITE
Flags: CommitCharge: 1, PrivateMemory: 1, Protection: 6

0x7ffffef0000  00 00 00 00 00 00 00 00 78 0d 00 00 00 00 00 00   ........x.......
0x7ffffef0010  0c 00 00 00 49 c7 c2 00 00 00 00 48 b8 80 1a 8d   ....I......H....
0x7ffffef0020  ed fe 07 00 00 ff e0 49 c7 c2 01 00 00 00 48 b8   .......I......H.
0x7ffffef0030  80 1a 8d ed fe 07 00 00 ff e0 49 c7 c2 02 00 00   ..........I.....

0xffef0000 0000             ADD [EAX], AL
0xffef0002 0000             ADD [EAX], AL
0xffef0004 0000             ADD [EAX], AL
0xffef0006 0000             ADD [EAX], AL
0xffef0008 780d             JS 0xffef0017
0xffef000a 0000             ADD [EAX], AL
0xffef000c 0000             ADD [EAX], AL
0xffef000e 0000             ADD [EAX], AL
0xffef0010 0c00             OR AL, 0x0
0xffef0012 0000             ADD [EAX], AL
0xffef0014 49               DEC ECX
0xffef0015 c7c200000000     MOV EDX, 0x0
0xffef001b 48               DEC EAX
0xffef001c b8801a8ded       MOV EAX, 0xed8d1a80
0xffef0021 fe07             INC BYTE [EDI]
0xffef0023 0000             ADD [EAX], AL
0xffef0025 ffe0             JMP EAX
0xffef0027 49               DEC ECX
0xffef0028 c7c201000000     MOV EDX, 0x1
0xffef002e 48               DEC EAX
0xffef002f b8801a8ded       MOV EAX, 0xed8d1a80
0xffef0034 fe07             INC BYTE [EDI]
0xffef0036 0000             ADD [EAX], AL
0xffef0038 ffe0             JMP EAX
0xffef003a 49               DEC ECX
0xffef003b c7               DB 0xc7
0xffef003c c20200           RET 0x2
0xffef003f 00               DB 0x0

